target datalayout = "e-m:e-p270:32:32-p271:32:32-p272:64:64-i64:64-i128:128-f80:128-n8:16:32:64-S128"
target triple = "x86_64-pc-linux-gnu"

%struct.anon = type { i64, double, double, double, double, double, double, double }

@.str.9 = private unnamed_addr constant [19 x i8] c"N_VGetArrayPointer\00", align 1
@stderr = external global ptr, align 8
@.str.49 = private unnamed_addr constant [55 x i8] c"\0ASUNDIALS_ERROR: %s() failed - returned NULL pointer\0A\0A\00", align 1
@.str.50 = private unnamed_addr constant [46 x i8] c"\0ASUNDIALS_ERROR: %s() failed with flag = %d\0A\0A\00", align 1
@.str.51 = private unnamed_addr constant [53 x i8] c"\0AMEMORY_ERROR: %s() failed - returned NULL pointer\0A\0A\00", align 1

; Function Attrs: nounwind uwtable
define internal i32 @check_flag(ptr noundef %0, ptr noundef %1, i32 noundef %2) #0 {
  %4 = alloca i32, align 4
  %5 = alloca ptr, align 8
  %6 = alloca ptr, align 8
  %7 = alloca i32, align 4
  %8 = alloca ptr, align 8
  %9 = alloca i32, align 4
  store ptr %0, ptr %5, align 8, !tbaa !10
  store ptr %1, ptr %6, align 8, !tbaa !35
  store i32 %2, ptr %7, align 4, !tbaa !8
  call void @llvm.lifetime.start.p0(i64 8, ptr %8) #6
  %10 = load i32, ptr %7, align 4, !tbaa !8
  %11 = icmp eq i32 %10, 0
  br i1 %11, label %12, label %19

12:                                               ; preds = %3
  %13 = load ptr, ptr %5, align 8, !tbaa !10
  %14 = icmp eq ptr %13, null
  br i1 %14, label %15, label %19

15:                                               ; preds = %12
  %16 = load ptr, ptr @stderr, align 8, !tbaa !33
  %17 = load ptr, ptr %6, align 8, !tbaa !35
  %18 = call i32 (ptr, ptr, ...) @fprintf(ptr noundef %16, ptr noundef @.str.49, ptr noundef %17) #6
  store i32 1, ptr %4, align 4
  store i32 1, ptr %9, align 4
  br label %47

19:                                               ; preds = %12, %3
  %20 = load i32, ptr %7, align 4, !tbaa !8
  %21 = icmp eq i32 %20, 1
  br i1 %21, label %22, label %34

22:                                               ; preds = %19
  %23 = load ptr, ptr %5, align 8, !tbaa !10
  store ptr %23, ptr %8, align 8, !tbaa !37
  %24 = load ptr, ptr %8, align 8, !tbaa !37
  %25 = load i32, ptr %24, align 4, !tbaa !8
  %26 = icmp slt i32 %25, 0
  br i1 %26, label %27, label %33

27:                                               ; preds = %22
  %28 = load ptr, ptr @stderr, align 8, !tbaa !33
  %29 = load ptr, ptr %6, align 8, !tbaa !35
  %30 = load ptr, ptr %8, align 8, !tbaa !37
  %31 = load i32, ptr %30, align 4, !tbaa !8
  %32 = call i32 (ptr, ptr, ...) @fprintf(ptr noundef %28, ptr noundef @.str.50, ptr noundef %29, i32 noundef %31) #6
  store i32 1, ptr %4, align 4
  store i32 1, ptr %9, align 4
  br label %47

33:                                               ; preds = %22
  br label %45

34:                                               ; preds = %19
  %35 = load i32, ptr %7, align 4, !tbaa !8
  %36 = icmp eq i32 %35, 2
  br i1 %36, label %37, label %44

37:                                               ; preds = %34
  %38 = load ptr, ptr %5, align 8, !tbaa !10
  %39 = icmp eq ptr %38, null
  br i1 %39, label %40, label %44

40:                                               ; preds = %37
  %41 = load ptr, ptr @stderr, align 8, !tbaa !33
  %42 = load ptr, ptr %6, align 8, !tbaa !35
  %43 = call i32 (ptr, ptr, ...) @fprintf(ptr noundef %41, ptr noundef @.str.51, ptr noundef %42) #6
  store i32 1, ptr %4, align 4
  store i32 1, ptr %9, align 4
  br label %47

44:                                               ; preds = %37, %34
  br label %45

45:                                               ; preds = %44, %33
  br label %46

46:                                               ; preds = %45
  store i32 0, ptr %4, align 4
  store i32 1, ptr %9, align 4
  br label %47

47:                                               ; preds = %46, %40, %27, %15
  call void @llvm.lifetime.end.p0(i64 8, ptr %8) #6
  %48 = load i32, ptr %4, align 4
  ret i32 %48
}

; Function Attrs: nounwind uwtable
define internal i32 @f(double noundef %0, ptr noundef %1, ptr noundef %2, ptr noundef %3) #0 {
  %5 = alloca i32, align 4
  %6 = alloca double, align 8
  %7 = alloca ptr, align 8
  %8 = alloca ptr, align 8
  %9 = alloca ptr, align 8
  %10 = alloca ptr, align 8
  %11 = alloca i64, align 8
  %12 = alloca double, align 8
  %13 = alloca double, align 8
  %14 = alloca double, align 8
  %15 = alloca double, align 8
  %16 = alloca double, align 8
  %17 = alloca double, align 8
  %18 = alloca double, align 8
  %19 = alloca ptr, align 8
  %20 = alloca ptr, align 8
  %21 = alloca double, align 8
  %22 = alloca double, align 8
  %23 = alloca double, align 8
  %24 = alloca double, align 8
  %25 = alloca double, align 8
  %26 = alloca double, align 8
  %27 = alloca double, align 8
  %28 = alloca double, align 8
  %29 = alloca double, align 8
  %30 = alloca double, align 8
  %31 = alloca double, align 8
  %32 = alloca double, align 8
  %33 = alloca i64, align 8
  %34 = alloca i32, align 4
  store double %0, ptr %6, align 8, !tbaa !4
  store ptr %1, ptr %7, align 8, !tbaa !14
  store ptr %2, ptr %8, align 8, !tbaa !14
  store ptr %3, ptr %9, align 8, !tbaa !10
  call void @llvm.lifetime.start.p0(i64 8, ptr %10) #6
  %35 = load ptr, ptr %9, align 8, !tbaa !10
  store ptr %35, ptr %10, align 8, !tbaa !10
  call void @llvm.lifetime.start.p0(i64 8, ptr %11) #6
  %36 = load ptr, ptr %10, align 8, !tbaa !10
  %37 = getelementptr inbounds nuw %struct.anon, ptr %36, i32 0, i32 0
  %38 = load i64, ptr %37, align 8, !tbaa !20
  store i64 %38, ptr %11, align 8, !tbaa !12
  call void @llvm.lifetime.start.p0(i64 8, ptr %12) #6
  %39 = load ptr, ptr %10, align 8, !tbaa !10
  %40 = getelementptr inbounds nuw %struct.anon, ptr %39, i32 0, i32 2
  %41 = load double, ptr %40, align 8, !tbaa !22
  store double %41, ptr %12, align 8, !tbaa !4
  call void @llvm.lifetime.start.p0(i64 8, ptr %13) #6
  %42 = load ptr, ptr %10, align 8, !tbaa !10
  %43 = getelementptr inbounds nuw %struct.anon, ptr %42, i32 0, i32 3
  %44 = load double, ptr %43, align 8, !tbaa !23
  store double %44, ptr %13, align 8, !tbaa !4
  call void @llvm.lifetime.start.p0(i64 8, ptr %14) #6
  %45 = load ptr, ptr %10, align 8, !tbaa !10
  %46 = getelementptr inbounds nuw %struct.anon, ptr %45, i32 0, i32 7
  %47 = load double, ptr %46, align 8, !tbaa !27
  store double %47, ptr %14, align 8, !tbaa !4
  call void @llvm.lifetime.start.p0(i64 8, ptr %15) #6
  %48 = load ptr, ptr %10, align 8, !tbaa !10
  %49 = getelementptr inbounds nuw %struct.anon, ptr %48, i32 0, i32 4
  %50 = load double, ptr %49, align 8, !tbaa !24
  store double %50, ptr %15, align 8, !tbaa !4
  call void @llvm.lifetime.start.p0(i64 8, ptr %16) #6
  %51 = load ptr, ptr %10, align 8, !tbaa !10
  %52 = getelementptr inbounds nuw %struct.anon, ptr %51, i32 0, i32 5
  %53 = load double, ptr %52, align 8, !tbaa !25
  store double %53, ptr %16, align 8, !tbaa !4
  call void @llvm.lifetime.start.p0(i64 8, ptr %17) #6
  %54 = load ptr, ptr %10, align 8, !tbaa !10
  %55 = getelementptr inbounds nuw %struct.anon, ptr %54, i32 0, i32 6
  %56 = load double, ptr %55, align 8, !tbaa !26
  store double %56, ptr %17, align 8, !tbaa !4
  call void @llvm.lifetime.start.p0(i64 8, ptr %18) #6
  %57 = load ptr, ptr %10, align 8, !tbaa !10
  %58 = getelementptr inbounds nuw %struct.anon, ptr %57, i32 0, i32 1
  %59 = load double, ptr %58, align 8, !tbaa !30
  store double %59, ptr %18, align 8, !tbaa !4
  call void @llvm.lifetime.start.p0(i64 8, ptr %19) #6
  store ptr null, ptr %19, align 8, !tbaa !31
  call void @llvm.lifetime.start.p0(i64 8, ptr %20) #6
  store ptr null, ptr %20, align 8, !tbaa !31
  call void @llvm.lifetime.start.p0(i64 8, ptr %21) #6
  call void @llvm.lifetime.start.p0(i64 8, ptr %22) #6
  call void @llvm.lifetime.start.p0(i64 8, ptr %23) #6
  call void @llvm.lifetime.start.p0(i64 8, ptr %24) #6
  call void @llvm.lifetime.start.p0(i64 8, ptr %25) #6
  call void @llvm.lifetime.start.p0(i64 8, ptr %26) #6
  call void @llvm.lifetime.start.p0(i64 8, ptr %27) #6
  call void @llvm.lifetime.start.p0(i64 8, ptr %28) #6
  call void @llvm.lifetime.start.p0(i64 8, ptr %29) #6
  call void @llvm.lifetime.start.p0(i64 8, ptr %30) #6
  call void @llvm.lifetime.start.p0(i64 8, ptr %31) #6
  call void @llvm.lifetime.start.p0(i64 8, ptr %32) #6
  call void @llvm.lifetime.start.p0(i64 8, ptr %33) #6
  %60 = load ptr, ptr %7, align 8, !tbaa !14
  %61 = call ptr @N_VGetArrayPointer(ptr noundef %60)
  store ptr %61, ptr %19, align 8, !tbaa !31
  %62 = load ptr, ptr %19, align 8, !tbaa !31
  %63 = call i32 @check_flag(ptr noundef %62, ptr noundef @.str.9, i32 noundef 0)
  %64 = icmp ne i32 %63, 0
  br i1 %64, label %65, label %66

65:                                               ; preds = %4
  store i32 1, ptr %5, align 4
  store i32 1, ptr %34, align 4
  br label %249

66:                                               ; preds = %4
  %67 = load ptr, ptr %8, align 8, !tbaa !14
  %68 = call ptr @N_VGetArrayPointer(ptr noundef %67)
  store ptr %68, ptr %20, align 8, !tbaa !31
  %69 = load ptr, ptr %20, align 8, !tbaa !31
  %70 = call i32 @check_flag(ptr noundef %69, ptr noundef @.str.9, i32 noundef 0)
  %71 = icmp ne i32 %70, 0
  br i1 %71, label %72, label %73

72:                                               ; preds = %66
  store i32 1, ptr %5, align 4
  store i32 1, ptr %34, align 4
  br label %249

73:                                               ; preds = %66
  %74 = load ptr, ptr %8, align 8, !tbaa !14
  call void @N_VConst(double noundef 0.000000e+00, ptr noundef %74)
  %75 = load double, ptr %15, align 8, !tbaa !4
  %76 = load double, ptr %18, align 8, !tbaa !4
  %77 = fdiv double %75, %76
  %78 = load double, ptr %18, align 8, !tbaa !4
  %79 = fdiv double %77, %78
  store double %79, ptr %21, align 8, !tbaa !4
  %80 = load double, ptr %16, align 8, !tbaa !4
  %81 = load double, ptr %18, align 8, !tbaa !4
  %82 = fdiv double %80, %81
  %83 = load double, ptr %18, align 8, !tbaa !4
  %84 = fdiv double %82, %83
  store double %84, ptr %22, align 8, !tbaa !4
  %85 = load double, ptr %17, align 8, !tbaa !4
  %86 = load double, ptr %18, align 8, !tbaa !4
  %87 = fdiv double %85, %86
  %88 = load double, ptr %18, align 8, !tbaa !4
  %89 = fdiv double %87, %88
  store double %89, ptr %23, align 8, !tbaa !4
  store i64 1, ptr %33, align 8, !tbaa !12
  br label %90

90:                                               ; preds = %221, %73
  %91 = load i64, ptr %33, align 8, !tbaa !12
  %92 = load i64, ptr %11, align 8, !tbaa !12
  %93 = sub nsw i64 %92, 1
  %94 = icmp slt i64 %91, %93
  br i1 %94, label %95, label %224

95:                                               ; preds = %90
  %96 = load ptr, ptr %19, align 8, !tbaa !31
  %97 = load i64, ptr %33, align 8, !tbaa !12
  %98 = mul nsw i64 3, %97
  %99 = add nsw i64 %98, 0
  %100 = getelementptr inbounds double, ptr %96, i64 %99
  %101 = load double, ptr %100, align 8, !tbaa !4
  store double %101, ptr %24, align 8, !tbaa !4
  %102 = load ptr, ptr %19, align 8, !tbaa !31
  %103 = load i64, ptr %33, align 8, !tbaa !12
  %104 = sub nsw i64 %103, 1
  %105 = mul nsw i64 3, %104
  %106 = add nsw i64 %105, 0
  %107 = getelementptr inbounds double, ptr %102, i64 %106
  %108 = load double, ptr %107, align 8, !tbaa !4
  store double %108, ptr %25, align 8, !tbaa !4
  %109 = load ptr, ptr %19, align 8, !tbaa !31
  %110 = load i64, ptr %33, align 8, !tbaa !12
  %111 = add nsw i64 %110, 1
  %112 = mul nsw i64 3, %111
  %113 = add nsw i64 %112, 0
  %114 = getelementptr inbounds double, ptr %109, i64 %113
  %115 = load double, ptr %114, align 8, !tbaa !4
  store double %115, ptr %26, align 8, !tbaa !4
  %116 = load ptr, ptr %19, align 8, !tbaa !31
  %117 = load i64, ptr %33, align 8, !tbaa !12
  %118 = mul nsw i64 3, %117
  %119 = add nsw i64 %118, 1
  %120 = getelementptr inbounds double, ptr %116, i64 %119
  %121 = load double, ptr %120, align 8, !tbaa !4
  store double %121, ptr %27, align 8, !tbaa !4
  %122 = load ptr, ptr %19, align 8, !tbaa !31
  %123 = load i64, ptr %33, align 8, !tbaa !12
  %124 = sub nsw i64 %123, 1
  %125 = mul nsw i64 3, %124
  %126 = add nsw i64 %125, 1
  %127 = getelementptr inbounds double, ptr %122, i64 %126
  %128 = load double, ptr %127, align 8, !tbaa !4
  store double %128, ptr %28, align 8, !tbaa !4
  %129 = load ptr, ptr %19, align 8, !tbaa !31
  %130 = load i64, ptr %33, align 8, !tbaa !12
  %131 = add nsw i64 %130, 1
  %132 = mul nsw i64 3, %131
  %133 = add nsw i64 %132, 1
  %134 = getelementptr inbounds double, ptr %129, i64 %133
  %135 = load double, ptr %134, align 8, !tbaa !4
  store double %135, ptr %29, align 8, !tbaa !4
  %136 = load ptr, ptr %19, align 8, !tbaa !31
  %137 = load i64, ptr %33, align 8, !tbaa !12
  %138 = mul nsw i64 3, %137
  %139 = add nsw i64 %138, 2
  %140 = getelementptr inbounds double, ptr %136, i64 %139
  %141 = load double, ptr %140, align 8, !tbaa !4
  store double %141, ptr %30, align 8, !tbaa !4
  %142 = load ptr, ptr %19, align 8, !tbaa !31
  %143 = load i64, ptr %33, align 8, !tbaa !12
  %144 = sub nsw i64 %143, 1
  %145 = mul nsw i64 3, %144
  %146 = add nsw i64 %145, 2
  %147 = getelementptr inbounds double, ptr %142, i64 %146
  %148 = load double, ptr %147, align 8, !tbaa !4
  store double %148, ptr %31, align 8, !tbaa !4
  %149 = load ptr, ptr %19, align 8, !tbaa !31
  %150 = load i64, ptr %33, align 8, !tbaa !12
  %151 = add nsw i64 %150, 1
  %152 = mul nsw i64 3, %151
  %153 = add nsw i64 %152, 2
  %154 = getelementptr inbounds double, ptr %149, i64 %153
  %155 = load double, ptr %154, align 8, !tbaa !4
  store double %155, ptr %32, align 8, !tbaa !4
  %156 = load double, ptr %25, align 8, !tbaa !4
  %157 = load double, ptr %24, align 8, !tbaa !4
  %158 = call double @llvm.fmuladd.f64(double -2.000000e+00, double %157, double %156)
  %159 = load double, ptr %26, align 8, !tbaa !4
  %160 = fadd double %158, %159
  %161 = load double, ptr %21, align 8, !tbaa !4
  %162 = load double, ptr %12, align 8, !tbaa !4
  %163 = call double @llvm.fmuladd.f64(double %160, double %161, double %162)
  %164 = load double, ptr %30, align 8, !tbaa !4
  %165 = fadd double %164, 1.000000e+00
  %166 = load double, ptr %24, align 8, !tbaa !4
  %167 = fneg double %165
  %168 = call double @llvm.fmuladd.f64(double %167, double %166, double %163)
  %169 = load double, ptr %27, align 8, !tbaa !4
  %170 = load double, ptr %24, align 8, !tbaa !4
  %171 = fmul double %169, %170
  %172 = load double, ptr %24, align 8, !tbaa !4
  %173 = call double @llvm.fmuladd.f64(double %171, double %172, double %168)
  %174 = load ptr, ptr %20, align 8, !tbaa !31
  %175 = load i64, ptr %33, align 8, !tbaa !12
  %176 = mul nsw i64 3, %175
  %177 = add nsw i64 %176, 0
  %178 = getelementptr inbounds double, ptr %174, i64 %177
  store double %173, ptr %178, align 8, !tbaa !4
  %179 = load double, ptr %28, align 8, !tbaa !4
  %180 = load double, ptr %27, align 8, !tbaa !4
  %181 = call double @llvm.fmuladd.f64(double -2.000000e+00, double %180, double %179)
  %182 = load double, ptr %29, align 8, !tbaa !4
  %183 = fadd double %181, %182
  %184 = load double, ptr %22, align 8, !tbaa !4
  %185 = load double, ptr %30, align 8, !tbaa !4
  %186 = load double, ptr %24, align 8, !tbaa !4
  %187 = fmul double %185, %186
  %188 = call double @llvm.fmuladd.f64(double %183, double %184, double %187)
  %189 = load double, ptr %27, align 8, !tbaa !4
  %190 = load double, ptr %24, align 8, !tbaa !4
  %191 = fmul double %189, %190
  %192 = load double, ptr %24, align 8, !tbaa !4
  %193 = fneg double %191
  %194 = call double @llvm.fmuladd.f64(double %193, double %192, double %188)
  %195 = load ptr, ptr %20, align 8, !tbaa !31
  %196 = load i64, ptr %33, align 8, !tbaa !12
  %197 = mul nsw i64 3, %196
  %198 = add nsw i64 %197, 1
  %199 = getelementptr inbounds double, ptr %195, i64 %198
  store double %194, ptr %199, align 8, !tbaa !4
  %200 = load double, ptr %31, align 8, !tbaa !4
  %201 = load double, ptr %30, align 8, !tbaa !4
  %202 = call double @llvm.fmuladd.f64(double -2.000000e+00, double %201, double %200)
  %203 = load double, ptr %32, align 8, !tbaa !4
  %204 = fadd double %202, %203
  %205 = load double, ptr %23, align 8, !tbaa !4
  %206 = load double, ptr %13, align 8, !tbaa !4
  %207 = load double, ptr %30, align 8, !tbaa !4
  %208 = fsub double %206, %207
  %209 = load double, ptr %14, align 8, !tbaa !4
  %210 = fdiv double %208, %209
  %211 = call double @llvm.fmuladd.f64(double %204, double %205, double %210)
  %212 = load double, ptr %30, align 8, !tbaa !4
  %213 = load double, ptr %24, align 8, !tbaa !4
  %214 = fneg double %212
  %215 = call double @llvm.fmuladd.f64(double %214, double %213, double %211)
  %216 = load ptr, ptr %20, align 8, !tbaa !31
  %217 = load i64, ptr %33, align 8, !tbaa !12
  %218 = mul nsw i64 3, %217
  %219 = add nsw i64 %218, 2
  %220 = getelementptr inbounds double, ptr %216, i64 %219
  store double %215, ptr %220, align 8, !tbaa !4
  br label %221

221:                                              ; preds = %95
  %222 = load i64, ptr %33, align 8, !tbaa !12
  %223 = add nsw i64 %222, 1
  store i64 %223, ptr %33, align 8, !tbaa !12
  br label %90

224:                                              ; preds = %90
  %225 = load ptr, ptr %20, align 8, !tbaa !31
  %226 = getelementptr inbounds double, ptr %225, i64 2
  store double 0.000000e+00, ptr %226, align 8, !tbaa !4
  %227 = load ptr, ptr %20, align 8, !tbaa !31
  %228 = getelementptr inbounds double, ptr %227, i64 1
  store double 0.000000e+00, ptr %228, align 8, !tbaa !4
  %229 = load ptr, ptr %20, align 8, !tbaa !31
  %230 = getelementptr inbounds double, ptr %229, i64 0
  store double 0.000000e+00, ptr %230, align 8, !tbaa !4
  %231 = load ptr, ptr %20, align 8, !tbaa !31
  %232 = load i64, ptr %11, align 8, !tbaa !12
  %233 = sub nsw i64 %232, 1
  %234 = mul nsw i64 3, %233
  %235 = add nsw i64 %234, 2
  %236 = getelementptr inbounds double, ptr %231, i64 %235
  store double 0.000000e+00, ptr %236, align 8, !tbaa !4
  %237 = load ptr, ptr %20, align 8, !tbaa !31
  %238 = load i64, ptr %11, align 8, !tbaa !12
  %239 = sub nsw i64 %238, 1
  %240 = mul nsw i64 3, %239
  %241 = add nsw i64 %240, 1
  %242 = getelementptr inbounds double, ptr %237, i64 %241
  store double 0.000000e+00, ptr %242, align 8, !tbaa !4
  %243 = load ptr, ptr %20, align 8, !tbaa !31
  %244 = load i64, ptr %11, align 8, !tbaa !12
  %245 = sub nsw i64 %244, 1
  %246 = mul nsw i64 3, %245
  %247 = add nsw i64 %246, 0
  %248 = getelementptr inbounds double, ptr %243, i64 %247
  store double 0.000000e+00, ptr %248, align 8, !tbaa !4
  store i32 0, ptr %5, align 4
  store i32 1, ptr %34, align 4
  br label %249

249:                                              ; preds = %224, %72, %65
  call void @llvm.lifetime.end.p0(i64 8, ptr %33) #6
  call void @llvm.lifetime.end.p0(i64 8, ptr %32) #6
  call void @llvm.lifetime.end.p0(i64 8, ptr %31) #6
  call void @llvm.lifetime.end.p0(i64 8, ptr %30) #6
  call void @llvm.lifetime.end.p0(i64 8, ptr %29) #6
  call void @llvm.lifetime.end.p0(i64 8, ptr %28) #6
  call void @llvm.lifetime.end.p0(i64 8, ptr %27) #6
  call void @llvm.lifetime.end.p0(i64 8, ptr %26) #6
  call void @llvm.lifetime.end.p0(i64 8, ptr %25) #6
  call void @llvm.lifetime.end.p0(i64 8, ptr %24) #6
  call void @llvm.lifetime.end.p0(i64 8, ptr %23) #6
  call void @llvm.lifetime.end.p0(i64 8, ptr %22) #6
  call void @llvm.lifetime.end.p0(i64 8, ptr %21) #6
  call void @llvm.lifetime.end.p0(i64 8, ptr %20) #6
  call void @llvm.lifetime.end.p0(i64 8, ptr %19) #6
  call void @llvm.lifetime.end.p0(i64 8, ptr %18) #6
  call void @llvm.lifetime.end.p0(i64 8, ptr %17) #6
  call void @llvm.lifetime.end.p0(i64 8, ptr %16) #6
  call void @llvm.lifetime.end.p0(i64 8, ptr %15) #6
  call void @llvm.lifetime.end.p0(i64 8, ptr %14) #6
  call void @llvm.lifetime.end.p0(i64 8, ptr %13) #6
  call void @llvm.lifetime.end.p0(i64 8, ptr %12) #6
  call void @llvm.lifetime.end.p0(i64 8, ptr %11) #6
  call void @llvm.lifetime.end.p0(i64 8, ptr %10) #6
  %250 = load i32, ptr %5, align 4
  ret i32 %250
}