; Function Attrs: nounwind uwtable
define internal range(i32 0, 2) i32 @f(double %0, ptr noundef %1, ptr noundef %2, ptr noundef readonly captures(none) %3) #0 {
  %5 = load i64, ptr %3, align 8, !tbaa !9
  %6 = getelementptr inbounds nuw i8, ptr %3, i64 16
  %7 = load double, ptr %6, align 8, !tbaa !13
  %8 = getelementptr inbounds nuw i8, ptr %3, i64 24
  %9 = load double, ptr %8, align 8, !tbaa !14
  %10 = getelementptr inbounds nuw i8, ptr %3, i64 56
  %11 = load double, ptr %10, align 8, !tbaa !18
  %12 = getelementptr inbounds nuw i8, ptr %3, i64 32
  %13 = load double, ptr %12, align 8, !tbaa !15
  %14 = getelementptr inbounds nuw i8, ptr %3, i64 40
  %15 = load double, ptr %14, align 8, !tbaa !16
  %16 = getelementptr inbounds nuw i8, ptr %3, i64 48
  %17 = load double, ptr %16, align 8, !tbaa !17
  %18 = getelementptr inbounds nuw i8, ptr %3, i64 8
  %19 = load double, ptr %18, align 8, !tbaa !21
  %20 = tail call ptr @N_VGetArrayPointer(ptr noundef %1) #11
  %21 = icmp eq ptr %20, null
  br i1 %21, label %check_flag.exit, label %24

check_flag.exit:                                  ; preds = %4
  %22 = load ptr, ptr @stderr, align 8, !tbaa !4
  %23 = tail call i32 (ptr, ptr, ...) @fprintf(ptr noundef %22, ptr noundef nonnull @.str.49, ptr noundef nonnull @.str.9) #12
  br label %85

24:                                               ; preds = %4
  %25 = tail call ptr @N_VGetArrayPointer(ptr noundef %2) #11
  %26 = icmp eq ptr %25, null
  br i1 %26, label %check_flag.exit91, label %29

check_flag.exit91:                                ; preds = %24
  %27 = load ptr, ptr @stderr, align 8, !tbaa !4
  %28 = tail call i32 (ptr, ptr, ...) @fprintf(ptr noundef %27, ptr noundef nonnull @.str.49, ptr noundef nonnull @.str.9) #12
  br label %85

29:                                               ; preds = %24
  tail call void @N_VConst(double noundef 0.000000e+00, ptr noundef %2) #11
  %30 = fdiv double %13, %19
  %31 = fdiv double %30, %19
  %32 = fdiv double %15, %19
  %33 = fdiv double %32, %19
  %34 = fdiv double %17, %19
  %35 = fdiv double %34, %19
  %36 = add i64 %5, -1
  %37 = icmp sgt i64 %5, 2
  br i1 %37, label %.lr.ph, label %._crit_edge

.lr.ph:                                           ; preds = %29, %.lr.ph
  %.097 = phi i64 [ %43, %.lr.ph ], [ 1, %29 ]
  %38 = mul nuw nsw i64 %.097, 3
  %39 = getelementptr inbounds nuw double, ptr %20, i64 %38
  %40 = load double, ptr %39, align 8, !tbaa !24
  %41 = getelementptr i8, ptr %39, i64 -24
  %42 = load double, ptr %41, align 8, !tbaa !24
  %43 = add nuw nsw i64 %.097, 1
  %.idx96 = mul nuw nsw i64 %43, 24
  %44 = getelementptr inbounds nuw i8, ptr %20, i64 %.idx96
  %45 = load double, ptr %44, align 8, !tbaa !24
  %46 = add nuw nsw i64 %38, 1
  %47 = getelementptr inbounds nuw double, ptr %20, i64 %46
  %48 = load double, ptr %47, align 8, !tbaa !24
  %49 = getelementptr i8, ptr %39, i64 -16
  %50 = load double, ptr %49, align 8, !tbaa !24
  %51 = getelementptr inbounds nuw i8, ptr %44, i64 8
  %52 = load double, ptr %51, align 8, !tbaa !24
  %53 = add nuw nsw i64 %38, 2
  %54 = getelementptr inbounds nuw double, ptr %20, i64 %53
  %55 = load double, ptr %54, align 8, !tbaa !24
  %56 = getelementptr i8, ptr %39, i64 -8
  %57 = load double, ptr %56, align 8, !tbaa !24
  %58 = getelementptr inbounds nuw i8, ptr %44, i64 16
  %59 = load double, ptr %58, align 8, !tbaa !24
  %60 = tail call double @llvm.fmuladd.f64(double %40, double -2.000000e+00, double %42)
  %61 = fadd double %60, %45
  %62 = tail call double @llvm.fmuladd.f64(double %61, double %31, double %7)
  %63 = fadd double %55, 1.000000e+00
  %64 = fneg double %63
  %65 = tail call double @llvm.fmuladd.f64(double %64, double %40, double %62)
  %66 = fmul double %40, %48
  %67 = tail call double @llvm.fmuladd.f64(double %66, double %40, double %65)
  %68 = getelementptr inbounds nuw double, ptr %25, i64 %38
  store double %67, ptr %68, align 8, !tbaa !24
  %69 = tail call double @llvm.fmuladd.f64(double %48, double -2.000000e+00, double %50)
  %70 = fadd double %69, %52
  %71 = fmul double %40, %55
  %72 = tail call double @llvm.fmuladd.f64(double %70, double %33, double %71)
  %73 = fneg double %66
  %74 = tail call double @llvm.fmuladd.f64(double %73, double %40, double %72)
  %75 = getelementptr inbounds nuw double, ptr %25, i64 %46
  store double %74, ptr %75, align 8, !tbaa !24
  %76 = tail call double @llvm.fmuladd.f64(double %55, double -2.000000e+00, double %57)
  %77 = fadd double %76, %59
  %78 = fsub double %9, %55
  %79 = fdiv double %78, %11
  %80 = tail call double @llvm.fmuladd.f64(double %77, double %35, double %79)
  %81 = fneg double %55
  %82 = tail call double @llvm.fmuladd.f64(double %81, double %40, double %80)
  %83 = getelementptr inbounds nuw double, ptr %25, i64 %53
  store double %82, ptr %83, align 8, !tbaa !24
  %exitcond.not = icmp eq i64 %43, %36
  br i1 %exitcond.not, label %._crit_edge, label %.lr.ph

._crit_edge:                                      ; preds = %.lr.ph, %29
  %.idx = mul i64 %36, 24
  %84 = getelementptr i8, ptr %25, i64 %.idx
  tail call void @llvm.memset.p0.i64(ptr noundef nonnull align 8 dereferenceable(24) %25, i8 0, i64 24, i1 false)
  tail call void @llvm.memset.p0.i64(ptr noundef nonnull align 8 dereferenceable(24) %84, i8 0, i64 24, i1 false)
  br label %85

85:                                               ; preds = %check_flag.exit91, %check_flag.exit, %._crit_edge
  %.087 = phi i32 [ 0, %._crit_edge ], [ 1, %check_flag.exit ], [ 1, %check_flag.exit91 ]
  ret i32 %.087
}